target datalayout = "e-m:e-p270:32:32-p271:32:32-p272:64:64-i64:64-i128:128-f80:128-n8:16:32:64-S128"
target triple = "x86_64-unknown-linux-gnu"

%"class.QuantLib::BespokeCalendar::Impl" = type <{ %"class.QuantLib::Calendar::Impl", %"class.std::__cxx11::basic_string", i32, [4 x i8] }>
%"class.QuantLib::Calendar::Impl" = type { ptr, %"class.std::set", %"class.std::set" }
%"class.std::set" = type { %"class.std::_Rb_tree" }
%"class.std::_Rb_tree" = type { %"struct.std::_Rb_tree<QuantLib::Date, QuantLib::Date, std::_Identity<QuantLib::Date>, std::less<QuantLib::Date>>::_Rb_tree_impl" }
%"struct.std::_Rb_tree<QuantLib::Date, QuantLib::Date, std::_Identity<QuantLib::Date>, std::less<QuantLib::Date>>::_Rb_tree_impl" = type { [8 x i8], %"struct.std::_Rb_tree_header" }
%"struct.std::_Rb_tree_header" = type { %"struct.std::_Rb_tree_node_base", i64 }
%"struct.std::_Rb_tree_node_base" = type { i32, ptr, ptr, ptr }
%"class.std::__cxx11::basic_string" = type { %"struct.std::__cxx11::basic_string<char>::_Alloc_hider", i64, %union.anon }
%"struct.std::__cxx11::basic_string<char>::_Alloc_hider" = type { ptr }
%union.anon = type { i64, [8 x i8] }
%"class.boost::shared_ptr.3" = type { ptr, %"class.boost::detail::shared_count" }
%"class.boost::detail::shared_count" = type { ptr }
%"class.QuantLib::BespokeCalendar" = type { %"class.QuantLib::Calendar", %"class.boost::shared_ptr.3" }
%"class.QuantLib::Calendar" = type { %"class.boost::shared_ptr" }
%"class.boost::shared_ptr" = type { ptr, %"class.boost::detail::shared_count" }

@.str = private unnamed_addr constant [8 x i8] c"px != 0\00", align 1
@__PRETTY_FUNCTION__._ZNK5boost10shared_ptrIN8QuantLib15BespokeCalendar4ImplEEptEv = private unnamed_addr constant [159 x i8] c"typename boost::detail::sp_member_access<T>::type boost::shared_ptr<QuantLib::BespokeCalendar::Impl>::operator->() const [T = QuantLib::BespokeCalendar::Impl]\00", align 1
@.str.1 = private unnamed_addr constant [102 x i8] c"generated/home/dtcxzyw/WorkSpace/SDK/vcpkg/installed/x64-linux/include/boost/smart_ptr/shared_ptr.hpp\00", align 1

; Function Attrs: mustprogress nounwind uwtable
define void @_ZN8QuantLib15BespokeCalendar4Impl10addWeekendENS_7WeekdayE(ptr noundef nonnull align 8 dereferenceable(144) %this, i32 noundef %w) #0 align 2 {
entry:
  %this.addr = alloca ptr, align 8
  %w.addr = alloca i32, align 4
  store ptr %this, ptr %this.addr, align 8, !tbaa !3
  store i32 %w, ptr %w.addr, align 4, !tbaa !25
  %this1 = load ptr, ptr %this.addr, align 8
  %0 = load i32, ptr %w.addr, align 4, !tbaa !25
  %shl = shl i32 1, %0
  %weekend_mask_ = getelementptr inbounds nuw %"class.QuantLib::BespokeCalendar::Impl", ptr %this1, i32 0, i32 2
  %1 = load i32, ptr %weekend_mask_, align 8, !tbaa !9
  %or = or i32 %1, %shl
  store i32 %or, ptr %weekend_mask_, align 8, !tbaa !9
  ret void
}

; Function Attrs: mustprogress uwtable
define linkonce_odr noundef ptr @_ZNK5boost10shared_ptrIN8QuantLib15BespokeCalendar4ImplEEptEv(ptr noundef nonnull align 8 dereferenceable(16) %this) #2 comdat align 2 {
entry:
  %this.addr = alloca ptr, align 8
  store ptr %this, ptr %this.addr, align 8, !tbaa !3
  %this1 = load ptr, ptr %this.addr, align 8
  %px = getelementptr inbounds nuw %"class.boost::shared_ptr.3", ptr %this1, i32 0, i32 0
  %0 = load ptr, ptr %px, align 8, !tbaa !30
  %cmp = icmp ne ptr %0, null
  %lnot = xor i1 %cmp, true
  %lnot2 = xor i1 %lnot, true
  %conv = zext i1 %lnot2 to i64
  %expval = call i64 @llvm.expect.i64(i64 %conv, i64 1)
  %tobool = icmp ne i64 %expval, 0
  br i1 %tobool, label %cond.true, label %cond.false

cond.true:                                        ; preds = %entry
  br label %cond.end

cond.false:                                       ; preds = %entry
  call void @_ZN5boost16assertion_failedEPKcS1_S1_l(ptr noundef @.str, ptr noundef @__PRETTY_FUNCTION__._ZNK5boost10shared_ptrIN8QuantLib15BespokeCalendar4ImplEEptEv, ptr noundef @.str.1, i64 noundef 784)
  br label %cond.end

cond.end:                                         ; preds = %cond.false, %cond.true
  %px3 = getelementptr inbounds nuw %"class.boost::shared_ptr.3", ptr %this1, i32 0, i32 0
  %1 = load ptr, ptr %px3, align 8, !tbaa !30
  ret ptr %1
}

; Function Attrs: mustprogress uwtable
define void @_ZN8QuantLib15BespokeCalendar10addWeekendENS_7WeekdayE(ptr noundef nonnull align 8 dereferenceable(32) %this, i32 noundef %w) #2 align 2 {
entry:
  %this.addr = alloca ptr, align 8
  %w.addr = alloca i32, align 4
  store ptr %this, ptr %this.addr, align 8, !tbaa !3
  store i32 %w, ptr %w.addr, align 4, !tbaa !25
  %this1 = load ptr, ptr %this.addr, align 8
  %bespokeImpl_ = getelementptr inbounds nuw %"class.QuantLib::BespokeCalendar", ptr %this1, i32 0, i32 1
  %call = call noundef ptr @_ZNK5boost10shared_ptrIN8QuantLib15BespokeCalendar4ImplEEptEv(ptr noundef nonnull align 8 dereferenceable(16) %bespokeImpl_)
  %0 = load i32, ptr %w.addr, align 4, !tbaa !25
  call void @_ZN8QuantLib15BespokeCalendar4Impl10addWeekendENS_7WeekdayE(ptr noundef nonnull align 8 dereferenceable(144) %call, i32 noundef %0)
  ret void
}