; Function Attrs: mustprogress uwtable
define void @_ZN8QuantLib15BespokeCalendar10addWeekendENS_7WeekdayE(ptr nocapture noundef nonnull readonly align 8 dereferenceable(32) %this, i32 noundef %w) local_unnamed_addr #1 align 2 {
entry:
  %bespokeImpl_ = getelementptr inbounds nuw i8, ptr %this, i64 16
  %0 = load ptr, ptr %bespokeImpl_, align 8, !tbaa !35
  %cmp.not.i = icmp eq ptr %0, null
  br i1 %cmp.not.i, label %cond.false.i, label %_ZNK5boost10shared_ptrIN8QuantLib15BespokeCalendar4ImplEEptEv.exit, !prof !48

cond.false.i:                                     ; preds = %entry
  tail call void @_ZN5boost16assertion_failedEPKcS1_S1_l(ptr noundef nonnull @.str, ptr noundef nonnull @__PRETTY_FUNCTION__._ZNK5boost10shared_ptrIN8QuantLib15BespokeCalendar4ImplEEptEv, ptr noundef nonnull @.str.1, i64 noundef 784)
  %.pre.i = load ptr, ptr %bespokeImpl_, align 8, !tbaa !35
  br label %_ZNK5boost10shared_ptrIN8QuantLib15BespokeCalendar4ImplEEptEv.exit

_ZNK5boost10shared_ptrIN8QuantLib15BespokeCalendar4ImplEEptEv.exit: ; preds = %entry, %cond.false.i
  %1 = phi ptr [ %0, %entry ], [ %.pre.i, %cond.false.i ]
  %shl.i = shl nuw i32 1, %w
  %weekend_mask_.i = getelementptr inbounds nuw i8, ptr %1, i64 136
  %2 = load i32, ptr %weekend_mask_.i, align 8, !tbaa !23
  %or.i = or i32 %2, %shl.i
  store i32 %or.i, ptr %weekend_mask_.i, align 8, !tbaa !23
  ret void
}